target datalayout = "e-m:e-p270:32:32-p271:32:32-p272:64:64-i64:64-i128:128-f80:128-n8:16:32:64-S128"
target triple = "x86_64-pc-linux-gnu"

%struct.slurmctld_resv = type { i16, ptr, i32, ptr, ptr, i32, ptr, ptr, i32, ptr, i32, ptr, i32, i64, i64, ptr, i64, ptr, ptr, i32, i32, ptr, ptr, i32, ptr, ptr, i32, ptr, ptr, ptr, i32, i32, i64, i64, i64, i64, ptr, ptr, ptr, i32, ptr }
%struct.job_record = type { i32, ptr, ptr, ptr, ptr, i16, i32, i32, i32, ptr, i32, ptr, ptr, i16, ptr, double, i64, ptr, ptr, ptr, ptr, ptr, ptr, i32, ptr, i32, i64, i64, i32, i32, ptr, i16, i64, i64, i8, i32, ptr, ptr, ptr, ptr, ptr, ptr, ptr, ptr, i32, ptr, ptr, i32, ptr, i32, ptr, i32, ptr, i32, ptr, ptr, ptr, ptr, ptr, ptr, i32, i16, i64, ptr, ptr, ptr, ptr, %struct.acct_policy_limit_set_t, i16, ptr, ptr, ptr, ptr, ptr, i32, ptr, ptr, ptr, ptr, ptr, i32, i32, ptr, ptr, ptr, i16, ptr, ptr, i8, ptr, ptr, i64, i64, i8, i32, i32, i8, i32, ptr, i32, i64, i32, ptr, ptr, ptr, i8, i16, i64, i32, ptr, ptr, ptr, ptr, ptr, i16, i32, ptr, ptr, ptr, ptr, i32, ptr, i32, i16, i64, ptr, i32, i32, ptr, i64, ptr, ptr, i64, i32, i32, i64, i32, i32, ptr, ptr, ptr, ptr, ptr, ptr, ptr, ptr, ptr, ptr, ptr, ptr, i32, ptr, i16, i16, i16, i16, ptr, i32, i32, i8, i64 }
%struct.acct_policy_limit_set_t = type { i16, i16, ptr }

@.str.158 = private unnamed_addr constant [63 x i8] c"Rejecting update of reservation %s, because it's in use by %pJ\00", align 1

; Function Attrs: nounwind uwtable
define internal i32 @_validate_reservation_access_update(ptr noundef %0, ptr noundef %1) #0 {
  %3 = alloca i32, align 4
  %4 = alloca ptr, align 8
  %5 = alloca ptr, align 8
  %6 = alloca i8, align 1
  %7 = alloca ptr, align 8
  %8 = alloca ptr, align 8
  %9 = alloca i32, align 4
  store ptr %0, ptr %4, align 8
  store ptr %1, ptr %5, align 8
  call void @llvm.lifetime.start.p0(i64 1, ptr %6) #10
  store i8 0, ptr %6, align 1
  call void @llvm.lifetime.start.p0(i64 8, ptr %7) #10
  %10 = load ptr, ptr %4, align 8
  store ptr %10, ptr %7, align 8
  call void @llvm.lifetime.start.p0(i64 8, ptr %8) #10
  %11 = load ptr, ptr %5, align 8
  store ptr %11, ptr %8, align 8
  %12 = load ptr, ptr %7, align 8
  %13 = getelementptr inbounds nuw %struct.job_record, ptr %12, i32 0, i32 110
  %14 = load ptr, ptr %13, align 8
  %15 = icmp eq ptr %14, null
  br i1 %15, label %16, label %17

16:                                               ; preds = %2
  store i32 0, ptr %3, align 4
  store i32 1, ptr %9, align 4
  br label %97

17:                                               ; preds = %2
  %18 = load ptr, ptr %7, align 8
  %19 = getelementptr inbounds nuw %struct.job_record, ptr %18, i32 0, i32 60
  %20 = load i32, ptr %19, align 8
  %21 = and i32 %20, 255
  %22 = icmp eq i32 %21, 1
  br i1 %22, label %23, label %33

23:                                               ; preds = %17
  %24 = load ptr, ptr %7, align 8
  %25 = getelementptr inbounds nuw %struct.job_record, ptr %24, i32 0, i32 110
  %26 = load ptr, ptr %25, align 8
  %27 = load ptr, ptr %8, align 8
  %28 = getelementptr inbounds nuw %struct.slurmctld_resv, ptr %27, i32 0, i32 24
  %29 = load ptr, ptr %28, align 8
  %30 = call i32 @xstrcmp(ptr noundef %26, ptr noundef %29)
  %31 = icmp ne i32 %30, 0
  br i1 %31, label %33, label %32

32:                                               ; preds = %23
  store i8 1, ptr %6, align 1
  br label %72

33:                                               ; preds = %23, %17
  %34 = load ptr, ptr %7, align 8
  %35 = getelementptr inbounds nuw %struct.job_record, ptr %34, i32 0, i32 60
  %36 = load i32, ptr %35, align 8
  %37 = and i32 %36, 255
  %38 = icmp eq i32 %37, 0
  br i1 %38, label %39, label %54

39:                                               ; preds = %33
  %40 = load ptr, ptr %7, align 8
  %41 = getelementptr inbounds nuw %struct.job_record, ptr %40, i32 0, i32 109
  %42 = load ptr, ptr %41, align 8
  %43 = icmp ne ptr %42, null
  br i1 %43, label %44, label %54

44:                                               ; preds = %39
  %45 = load ptr, ptr %7, align 8
  %46 = getelementptr inbounds nuw %struct.job_record, ptr %45, i32 0, i32 109
  %47 = load ptr, ptr %46, align 8
  %48 = load ptr, ptr %8, align 8
  %49 = getelementptr inbounds nuw %struct.slurmctld_resv, ptr %48, i32 0, i32 24
  %50 = load ptr, ptr %49, align 8
  %51 = call ptr @list_find_first(ptr noundef %47, ptr noundef @_find_resv_name, ptr noundef %50)
  %52 = icmp ne ptr %51, null
  br i1 %52, label %53, label %54

53:                                               ; preds = %44
  store i8 1, ptr %6, align 1
  br label %71

54:                                               ; preds = %44, %39, %33
  %55 = load ptr, ptr %7, align 8
  %56 = getelementptr inbounds nuw %struct.job_record, ptr %55, i32 0, i32 60
  %57 = load i32, ptr %56, align 8
  %58 = and i32 %57, 255
  %59 = icmp eq i32 %58, 0
  br i1 %59, label %60, label %70

60:                                               ; preds = %54
  %61 = load ptr, ptr %7, align 8
  %62 = getelementptr inbounds nuw %struct.job_record, ptr %61, i32 0, i32 110
  %63 = load ptr, ptr %62, align 8
  %64 = load ptr, ptr %8, align 8
  %65 = getelementptr inbounds nuw %struct.slurmctld_resv, ptr %64, i32 0, i32 24
  %66 = load ptr, ptr %65, align 8
  %67 = call i32 @xstrcmp(ptr noundef %63, ptr noundef %66)
  %68 = icmp ne i32 %67, 0
  br i1 %68, label %70, label %69

69:                                               ; preds = %60
  store i8 1, ptr %6, align 1
  br label %70

70:                                               ; preds = %69, %60, %54
  br label %71

71:                                               ; preds = %70, %53
  br label %72

72:                                               ; preds = %71, %32
  %73 = load i8, ptr %6, align 1, !range !11, !noundef !12
  %74 = trunc i8 %73 to i1
  br i1 %74, label %76, label %75

75:                                               ; preds = %72
  store i32 0, ptr %3, align 4
  store i32 1, ptr %9, align 4
  br label %97

76:                                               ; preds = %72
  %77 = load ptr, ptr %7, align 8
  %78 = load ptr, ptr %8, align 8
  %79 = call i32 @_valid_job_access_resv(ptr noundef %77, ptr noundef %78, i1 noundef zeroext false)
  %80 = icmp ne i32 %79, 0
  br i1 %80, label %81, label %96

81:                                               ; preds = %76
  br label %82

82:                                               ; preds = %81
  br label %83

83:                                               ; preds = %82
  %84 = call i32 @get_log_level()
  %85 = icmp sge i32 %84, 3
  br i1 %85, label %86, label %91

86:                                               ; preds = %83
  %87 = load ptr, ptr %8, align 8
  %88 = getelementptr inbounds nuw %struct.slurmctld_resv, ptr %87, i32 0, i32 24
  %89 = load ptr, ptr %88, align 8
  %90 = load ptr, ptr %7, align 8
  call void (i32, ptr, ...) @log_var(i32 noundef 3, ptr noundef @.str.158, ptr noundef %89, ptr noundef %90)
  br label %91

91:                                               ; preds = %86, %83
  br label %92

92:                                               ; preds = %91
  br label %93

93:                                               ; preds = %92
  br label %94

94:                                               ; preds = %93
  br label %95

95:                                               ; preds = %94
  store i32 1, ptr %3, align 4
  store i32 1, ptr %9, align 4
  br label %97

96:                                               ; preds = %76
  store i32 0, ptr %3, align 4
  store i32 1, ptr %9, align 4
  br label %97

97:                                               ; preds = %96, %95, %75, %16
  call void @llvm.lifetime.end.p0(i64 8, ptr %8) #10
  call void @llvm.lifetime.end.p0(i64 8, ptr %7) #10
  call void @llvm.lifetime.end.p0(i64 1, ptr %6) #10
  %98 = load i32, ptr %3, align 4
  ret i32 %98
}