; Function Attrs: nounwind uwtable
define internal range(i32 0, 2) i32 @_validate_reservation_access_update(ptr noundef %0, ptr noundef captures(address_is_null) %1) #0 {
  %3 = getelementptr inbounds nuw i8, ptr %0, i64 816
  %4 = load ptr, ptr %3, align 8
  %5 = icmp eq ptr %4, null
  br i1 %5, label %.critedge, label %6

6:                                                ; preds = %2
  %7 = getelementptr inbounds nuw i8, ptr %0, i64 448
  %8 = load i32, ptr %7, align 8
  %9 = and i32 %8, 255
  %10 = icmp eq i32 %9, 1
  br i1 %10, label %11, label %15

11:                                               ; preds = %6
  %12 = getelementptr inbounds nuw i8, ptr %1, i64 184
  %13 = load ptr, ptr %12, align 8
  %14 = tail call i32 @xstrcmp(ptr noundef nonnull %4, ptr noundef %13) #19
  %.not = icmp eq i32 %14, 0
  br i1 %.not, label %.critedge26, label %._crit_edge

._crit_edge:                                      ; preds = %11
  %.pre = load i32, ptr %7, align 8
  br label %15

15:                                               ; preds = %._crit_edge, %6
  %16 = phi i32 [ %.pre, %._crit_edge ], [ %8, %6 ]
  %17 = and i32 %16, 255
  %18 = icmp eq i32 %17, 0
  br i1 %18, label %19, label %26

19:                                               ; preds = %15
  %20 = getelementptr inbounds nuw i8, ptr %0, i64 808
  %21 = load ptr, ptr %20, align 8
  %.not21 = icmp eq ptr %21, null
  br i1 %.not21, label %26, label %22

22:                                               ; preds = %19
  %23 = getelementptr inbounds nuw i8, ptr %1, i64 184
  %24 = load ptr, ptr %23, align 8
  %25 = tail call ptr @list_find_first(ptr noundef nonnull %21, ptr noundef nonnull @_find_resv_name, ptr noundef %24) #19
  %.not22 = icmp eq ptr %25, null
  br i1 %.not22, label %._crit_edge27, label %.critedge26

._crit_edge27:                                    ; preds = %22
  %.pre28 = load i32, ptr %7, align 8
  br label %26

26:                                               ; preds = %._crit_edge27, %19, %15
  %27 = phi i32 [ %.pre28, %._crit_edge27 ], [ %16, %19 ], [ %16, %15 ]
  %28 = and i32 %27, 255
  %29 = icmp eq i32 %28, 0
  br i1 %29, label %30, label %.critedge

30:                                               ; preds = %26
  %31 = load ptr, ptr %3, align 8
  %32 = getelementptr inbounds nuw i8, ptr %1, i64 184
  %33 = load ptr, ptr %32, align 8
  %34 = tail call i32 @xstrcmp(ptr noundef %31, ptr noundef %33) #19
  %.not23 = icmp eq i32 %34, 0
  br i1 %.not23, label %.critedge26, label %.critedge

.critedge26:                                      ; preds = %11, %22, %30
  %35 = tail call fastcc i32 @_valid_job_access_resv(ptr noundef nonnull %0, ptr noundef nonnull %1, i1 noundef zeroext false)
  %.not24 = icmp eq i32 %35, 0
  br i1 %.not24, label %.critedge, label %36

36:                                               ; preds = %.critedge26
  %37 = tail call i32 @get_log_level() #19
  %38 = icmp sgt i32 %37, 2
  br i1 %38, label %39, label %.critedge

39:                                               ; preds = %36
  %40 = getelementptr inbounds nuw i8, ptr %1, i64 184
  %41 = load ptr, ptr %40, align 8
  tail call void (i32, ptr, ...) @log_var(i32 noundef 3, ptr noundef nonnull @.str.158, ptr noundef %41, ptr noundef nonnull %0) #19
  br label %.critedge

.critedge:                                        ; preds = %26, %.critedge26, %36, %39, %30, %2
  %.0 = phi i32 [ 0, %2 ], [ 0, %30 ], [ 1, %39 ], [ 1, %36 ], [ 0, %.critedge26 ], [ 0, %26 ]
  ret i32 %.0
}